; Function Attrs: null_pointer_is_valid sspstrong uwtable
define internal fastcc ptr @process_RequestOperation(ptr noundef %0, ptr noundef readonly captures(none) %1, ptr noundef %2, i8 %.7.val, ptr noundef %3) unnamed_addr #0 {
  %5 = icmp eq i8 %.7.val, 1
  br i1 %5, label %6, label %9

6:                                                ; preds = %4
  %7 = getelementptr inbounds nuw i8, ptr %1, i64 8
  %8 = load ptr, ptr %7, align 8
  tail call void (ptr, i32, ptr, ...) @col_append_fstr(ptr noundef %8, i32 noundef 25, ptr noundef nonnull @.str.25, ptr noundef %3)
  br label %9

9:                                                ; preds = %6, %4
  %10 = load i32, ptr @hf_operationrequest, align 4
  %11 = tail call ptr @proto_tree_add_string(ptr noundef %2, i32 noundef %10, ptr noundef %0, i32 noundef 0, i32 noundef 0, ptr noundef %3)
  %.not.i = icmp eq ptr %11, null
  br i1 %.not.i, label %proto_item_set_generated.exit, label %12

12:                                               ; preds = %9
  %13 = getelementptr inbounds nuw i8, ptr %11, i64 40
  %14 = load ptr, ptr %13, align 8
  %.not5.i = icmp eq ptr %14, null
  br i1 %.not5.i, label %proto_item_set_generated.exit, label %15

15:                                               ; preds = %12
  %16 = getelementptr inbounds nuw i8, ptr %14, i64 28
  %17 = load i32, ptr %16, align 4
  %18 = or i32 %17, 2
  store i32 %18, ptr %16, align 4
  br label %proto_item_set_generated.exit

proto_item_set_generated.exit:                    ; preds = %9, %12, %15
  ret ptr %11
}